target datalayout = "e-m:e-p270:32:32-p271:32:32-p272:64:64-i64:64-i128:128-f80:128-n8:16:32:64-S128"
target triple = "x86_64-pc-linux-gnu"

%struct.URLContext = type { ptr, ptr, ptr, ptr, i32, i32, i32, i32, %struct.AVIOInterruptCB, i64, ptr, ptr, i32 }
%struct.AVIOInterruptCB = type { ptr, ptr }
%struct.MMSTContext = type { %struct.MMSContext, i32, [256 x i8], [128 x i8], i32, i32, i32, i32 }
%struct.MMSContext = type { ptr, ptr, ptr, [512 x i8], [65536 x i8], ptr, i32, ptr, i32, i32, i32, i32, i32, i32 }

@.str.26 = private unnamed_addr constant [50 x i8] c"Incoming pktlen %d is larger than ASF pktsize %d\0A\00", align 1
@.str.27 = private unnamed_addr constant [37 x i8] c"Read ASF media packet size is zero!\0A\00", align 1
@.str.28 = private unnamed_addr constant [20 x i8] c"read packet error!\0A\00", align 1

; Function Attrs: nounwind uwtable
define internal i32 @mms_read(ptr noundef %0, ptr noundef %1, i32 noundef %2) #0 {
  %4 = alloca ptr, align 8
  %5 = alloca ptr, align 8
  %6 = alloca i32, align 4
  %7 = alloca ptr, align 8
  %8 = alloca ptr, align 8
  %9 = alloca i32, align 4
  %10 = alloca i32, align 4
  %11 = alloca i32, align 4
  store ptr %0, ptr %4, align 8, !tbaa !4
  store ptr %1, ptr %5, align 8, !tbaa !9
  store i32 %2, ptr %6, align 4, !tbaa !11
  call void @llvm.lifetime.start.p0(i64 8, ptr %7) #8
  %12 = load ptr, ptr %4, align 8, !tbaa !4
  %13 = getelementptr inbounds nuw %struct.URLContext, ptr %12, i32 0, i32 2
  %14 = load ptr, ptr %13, align 8, !tbaa !13
  store ptr %14, ptr %7, align 8, !tbaa !19
  call void @llvm.lifetime.start.p0(i64 8, ptr %8) #8
  %15 = load ptr, ptr %7, align 8, !tbaa !19
  %16 = getelementptr inbounds nuw %struct.MMSTContext, ptr %15, i32 0, i32 0
  store ptr %16, ptr %8, align 8, !tbaa !22
  call void @llvm.lifetime.start.p0(i64 4, ptr %9) #8
  store i32 0, ptr %9, align 4, !tbaa !11
  br label %17

17:                                               ; preds = %80, %3
  %18 = load ptr, ptr %8, align 8, !tbaa !22
  %19 = getelementptr inbounds nuw %struct.MMSContext, ptr %18, i32 0, i32 11
  %20 = load i32, ptr %19, align 4, !tbaa !36
  %21 = load ptr, ptr %8, align 8, !tbaa !22
  %22 = getelementptr inbounds nuw %struct.MMSContext, ptr %21, i32 0, i32 8
  %23 = load i32, ptr %22, align 8, !tbaa !37
  %24 = icmp slt i32 %20, %23
  br i1 %24, label %25, label %30

25:                                               ; preds = %17
  %26 = load ptr, ptr %8, align 8, !tbaa !22
  %27 = load ptr, ptr %5, align 8, !tbaa !9
  %28 = load i32, ptr %6, align 4, !tbaa !11
  %29 = call i32 @ff_mms_read_header(ptr noundef %26, ptr noundef %27, i32 noundef %28)
  store i32 %29, ptr %9, align 4, !tbaa !11
  br label %79

30:                                               ; preds = %17
  %31 = load ptr, ptr %8, align 8, !tbaa !22
  %32 = getelementptr inbounds nuw %struct.MMSContext, ptr %31, i32 0, i32 6
  %33 = load i32, ptr %32, align 8, !tbaa !38
  %34 = icmp ne i32 %33, 0
  br i1 %34, label %35, label %40

35:                                               ; preds = %30
  %36 = load ptr, ptr %8, align 8, !tbaa !22
  %37 = load ptr, ptr %5, align 8, !tbaa !9
  %38 = load i32, ptr %6, align 4, !tbaa !11
  %39 = call i32 @ff_mms_read_data(ptr noundef %36, ptr noundef %37, i32 noundef %38)
  store i32 %39, ptr %9, align 4, !tbaa !11
  br label %78

40:                                               ; preds = %30
  call void @llvm.lifetime.start.p0(i64 4, ptr %10) #8
  %41 = load ptr, ptr %7, align 8, !tbaa !19
  %42 = call i32 @mms_safe_send_recv(ptr noundef %41, ptr noundef null, i32 noundef 65537)
  store i32 %42, ptr %10, align 4, !tbaa !11
  %43 = load i32, ptr %10, align 4, !tbaa !11
  %44 = icmp eq i32 %43, 0
  br i1 %44, label %45, label %72

45:                                               ; preds = %40
  %46 = load ptr, ptr %8, align 8, !tbaa !22
  %47 = getelementptr inbounds nuw %struct.MMSContext, ptr %46, i32 0, i32 6
  %48 = load i32, ptr %47, align 8, !tbaa !38
  %49 = load ptr, ptr %8, align 8, !tbaa !22
  %50 = getelementptr inbounds nuw %struct.MMSContext, ptr %49, i32 0, i32 10
  %51 = load i32, ptr %50, align 8, !tbaa !33
  %52 = icmp sgt i32 %48, %51
  br i1 %52, label %53, label %61

53:                                               ; preds = %45
  %54 = load ptr, ptr %4, align 8, !tbaa !4
  %55 = load ptr, ptr %8, align 8, !tbaa !22
  %56 = getelementptr inbounds nuw %struct.MMSContext, ptr %55, i32 0, i32 6
  %57 = load i32, ptr %56, align 8, !tbaa !38
  %58 = load ptr, ptr %8, align 8, !tbaa !22
  %59 = getelementptr inbounds nuw %struct.MMSContext, ptr %58, i32 0, i32 10
  %60 = load i32, ptr %59, align 8, !tbaa !33
  call void (ptr, i32, ptr, ...) @av_log(ptr noundef %54, i32 noundef 16, ptr noundef @.str.26, i32 noundef %57, i32 noundef %60)
  store i32 -5, ptr %9, align 4, !tbaa !11
  br label %71

61:                                               ; preds = %45
  %62 = load ptr, ptr %8, align 8, !tbaa !22
  %63 = load ptr, ptr %5, align 8, !tbaa !9
  %64 = load i32, ptr %6, align 4, !tbaa !11
  %65 = call i32 @ff_mms_read_data(ptr noundef %62, ptr noundef %63, i32 noundef %64)
  store i32 %65, ptr %9, align 4, !tbaa !11
  %66 = load i32, ptr %9, align 4, !tbaa !11
  %67 = icmp eq i32 %66, 0
  br i1 %67, label %68, label %70

68:                                               ; preds = %61
  %69 = load ptr, ptr %4, align 8, !tbaa !4
  call void (ptr, i32, ptr, ...) @av_log(ptr noundef %69, i32 noundef 56, ptr noundef @.str.27)
  store i32 2, ptr %11, align 4
  br label %75

70:                                               ; preds = %61
  br label %71

71:                                               ; preds = %70, %53
  br label %74

72:                                               ; preds = %40
  %73 = load ptr, ptr %4, align 8, !tbaa !4
  call void (ptr, i32, ptr, ...) @av_log(ptr noundef %73, i32 noundef 56, ptr noundef @.str.28)
  store i32 2, ptr %11, align 4
  br label %75

74:                                               ; preds = %71
  store i32 0, ptr %11, align 4
  br label %75

75:                                               ; preds = %74, %72, %68
  call void @llvm.lifetime.end.p0(i64 4, ptr %10) #8
  %76 = load i32, ptr %11, align 4
  switch i32 %76, label %86 [
    i32 0, label %77
    i32 2, label %84
  ]

77:                                               ; preds = %75
  br label %78

78:                                               ; preds = %77, %35
  br label %79

79:                                               ; preds = %78, %25
  br label %80

80:                                               ; preds = %79
  %81 = load i32, ptr %9, align 4, !tbaa !11
  %82 = icmp ne i32 %81, 0
  %83 = xor i1 %82, true
  br i1 %83, label %17, label %84, !llvm.loop !39

84:                                               ; preds = %80, %75
  %85 = load i32, ptr %9, align 4, !tbaa !11
  store i32 1, ptr %11, align 4
  call void @llvm.lifetime.end.p0(i64 4, ptr %9) #8
  call void @llvm.lifetime.end.p0(i64 8, ptr %8) #8
  call void @llvm.lifetime.end.p0(i64 8, ptr %7) #8
  ret i32 %85

86:                                               ; preds = %75
  unreachable
}