; Function Attrs: nounwind uwtable
define internal i32 @mms_read(ptr noundef %0, ptr noundef %1, i32 noundef %2) #0 {
  %4 = getelementptr inbounds nuw i8, ptr %0, i64 16
  %5 = load ptr, ptr %4, align 8, !tbaa !4
  %6 = getelementptr inbounds nuw i8, ptr %5, i64 66108
  %7 = getelementptr inbounds nuw i8, ptr %5, i64 66096
  %8 = getelementptr inbounds nuw i8, ptr %5, i64 66080
  br label %9

9:                                                ; preds = %33, %3
  %10 = load i32, ptr %6, align 4, !tbaa !32
  %11 = load i32, ptr %7, align 8, !tbaa !33
  %12 = icmp slt i32 %10, %11
  br i1 %12, label %13, label %15

13:                                               ; preds = %9
  %14 = tail call i32 @ff_mms_read_header(ptr noundef nonnull %5, ptr noundef %1, i32 noundef %2) #7
  br label %33

15:                                               ; preds = %9
  %16 = load i32, ptr %8, align 8, !tbaa !29
  %.not = icmp eq i32 %16, 0
  br i1 %.not, label %19, label %17

17:                                               ; preds = %15
  %18 = tail call i32 @ff_mms_read_data(ptr noundef nonnull %5, ptr noundef %1, i32 noundef %2) #7
  br label %33

19:                                               ; preds = %15
  %20 = tail call fastcc i32 @mms_safe_send_recv(ptr noundef nonnull %5, ptr noundef null, i32 noundef 65537)
  %21 = icmp eq i32 %20, 0
  br i1 %21, label %22, label %32

22:                                               ; preds = %19
  %23 = load i32, ptr %8, align 8, !tbaa !29
  %24 = getelementptr inbounds nuw i8, ptr %5, i64 66104
  %25 = load i32, ptr %24, align 8, !tbaa !27
  %26 = icmp sgt i32 %23, %25
  br i1 %26, label %27, label %28

27:                                               ; preds = %22
  tail call void (ptr, i32, ptr, ...) @av_log(ptr noundef %0, i32 noundef 16, ptr noundef nonnull @.str.26, i32 noundef %23, i32 noundef %25) #7
  br label %.thread35

28:                                               ; preds = %22
  %29 = tail call i32 @ff_mms_read_data(ptr noundef nonnull %5, ptr noundef %1, i32 noundef %2) #7
  %30 = icmp eq i32 %29, 0
  br i1 %30, label %31, label %.thread35

31:                                               ; preds = %28
  tail call void (ptr, i32, ptr, ...) @av_log(ptr noundef %0, i32 noundef 56, ptr noundef nonnull @.str.27) #7
  br label %.thread35

32:                                               ; preds = %19
  tail call void (ptr, i32, ptr, ...) @av_log(ptr noundef %0, i32 noundef 56, ptr noundef nonnull @.str.28) #7
  br label %.thread35

33:                                               ; preds = %13, %17
  %.4 = phi i32 [ %14, %13 ], [ %18, %17 ]
  %.not31 = icmp eq i32 %.4, 0
  br i1 %.not31, label %9, label %.thread35, !llvm.loop !34

.thread35:                                        ; preds = %33, %27, %28, %31, %32
  %.3 = phi i32 [ 0, %31 ], [ 0, %32 ], [ %29, %28 ], [ -5, %27 ], [ %.4, %33 ]
  ret i32 %.3
}